target datalayout = "e-m:e-p270:32:32-p271:32:32-p272:64:64-i64:64-i128:128-f80:128-n8:16:32:64-S128"
target triple = "x86_64-pc-linux-gnu"

%"class.pstd::pmr::monotonic_buffer_resource" = type { %"class.pstd::pmr::memory_resource", ptr, i64, ptr, i64, ptr, [16 x i8] }
%"class.pstd::pmr::memory_resource" = type { ptr }
%"class.pstd::pmr::polymorphic_allocator" = type { ptr }

@_ZTVN4pstd3pmr25monotonic_buffer_resourceE = external unnamed_addr constant { [7 x ptr] }, align 8

; Function Attrs: inlinehint mustprogress nounwind uwtable
define linkonce_odr dso_local void @_ZN4pstd3pmr15memory_resourceC2Ev(ptr noundef nonnull align 8 dereferenceable(8) %0) unnamed_addr #3 comdat align 2 {
  %2 = alloca ptr, align 8
  store ptr %0, ptr %2, align 8, !tbaa !78
  %3 = load ptr, ptr %2, align 8
  store ptr getelementptr inbounds inrange(-16, 40) ({ [7 x ptr] }, ptr @_ZTVN4pstd3pmr15memory_resourceE, i32 0, i32 0, i32 2), ptr %3, align 8, !tbaa !86
  ret void
}

; Function Attrs: mustprogress nounwind uwtable
define linkonce_odr dso_local void @_ZN4pstd3pmr21polymorphic_allocatorISt4byteEC2EPNS0_15memory_resourceE(ptr noundef nonnull align 8 dereferenceable(8) %0, ptr noundef %1) unnamed_addr #7 comdat align 2 {
  %3 = alloca ptr, align 8
  %4 = alloca ptr, align 8
  store ptr %0, ptr %3, align 8, !tbaa !14
  store ptr %1, ptr %4, align 8, !tbaa !78
  %5 = load ptr, ptr %3, align 8
  %6 = getelementptr inbounds nuw %"class.pstd::pmr::polymorphic_allocator", ptr %5, i32 0, i32 0
  %7 = load ptr, ptr %4, align 8, !tbaa !78
  store ptr %7, ptr %6, align 8, !tbaa !16
  ret void
}

; Function Attrs: mustprogress nounwind uwtable
define linkonce_odr dso_local void @_ZN4pstd3pmr25monotonic_buffer_resourceC2EmPNS0_15memory_resourceE(ptr noundef nonnull align 64 dereferenceable(48) %0, i64 noundef %1, ptr noundef %2) unnamed_addr #7 comdat align 2 {
  %4 = alloca ptr, align 8
  %5 = alloca i64, align 8
  %6 = alloca ptr, align 8
  store ptr %0, ptr %4, align 8, !tbaa !701
  store i64 %1, ptr %5, align 8, !tbaa !166
  store ptr %2, ptr %6, align 8, !tbaa !78
  %7 = load ptr, ptr %4, align 8
  call void @_ZN4pstd3pmr15memory_resourceC2Ev(ptr noundef nonnull align 8 dereferenceable(8) %7) #6
  store ptr getelementptr inbounds inrange(-16, 40) ({ [7 x ptr] }, ptr @_ZTVN4pstd3pmr25monotonic_buffer_resourceE, i32 0, i32 0, i32 2), ptr %7, align 64, !tbaa !86
  %8 = getelementptr inbounds nuw %"class.pstd::pmr::monotonic_buffer_resource", ptr %7, i32 0, i32 1
  %9 = load ptr, ptr %6, align 8, !tbaa !78
  store ptr %9, ptr %8, align 8, !tbaa !715
  %10 = getelementptr inbounds nuw %"class.pstd::pmr::monotonic_buffer_resource", ptr %7, i32 0, i32 2
  %11 = load i64, ptr %5, align 8, !tbaa !166
  store i64 %11, ptr %10, align 16, !tbaa !1669
  %12 = getelementptr inbounds nuw %"class.pstd::pmr::monotonic_buffer_resource", ptr %7, i32 0, i32 3
  store ptr null, ptr %12, align 8, !tbaa !714
  %13 = getelementptr inbounds nuw %"class.pstd::pmr::monotonic_buffer_resource", ptr %7, i32 0, i32 4
  store i64 0, ptr %13, align 32, !tbaa !1670
  %14 = getelementptr inbounds nuw %"class.pstd::pmr::monotonic_buffer_resource", ptr %7, i32 0, i32 5
  store ptr null, ptr %14, align 8, !tbaa !709
  ret void
}

; Function Attrs: inlinehint mustprogress uwtable
define internal ptr @"_ZZN4pbrt10BasicSceneC1EvENK3$_0clEv"(ptr noundef nonnull align 1 dereferenceable(1) %0) #8 align 2 personality ptr @__gxx_personality_v0 {
  %2 = alloca %"class.pstd::pmr::polymorphic_allocator", align 8
  %3 = alloca ptr, align 8
  %4 = alloca ptr, align 8
  %5 = alloca ptr, align 8
  %6 = alloca ptr, align 8
  %7 = alloca i32, align 4
  store ptr %0, ptr %3, align 8, !tbaa !13
  call void @llvm.lifetime.start.p0(i64 8, ptr %4) #6
  %8 = call noundef ptr @_ZN4pstd3pmr20get_default_resourceEv() #6
  store ptr %8, ptr %4, align 8, !tbaa !78
  call void @llvm.lifetime.start.p0(i64 8, ptr %5) #6
  %9 = call noalias noundef nonnull align 64 ptr @_ZnwmSt11align_val_t(i64 noundef 64, i64 noundef 64) #28
  %10 = load ptr, ptr %4, align 8, !tbaa !78
  invoke void @_ZN4pstd3pmr25monotonic_buffer_resourceC2EmPNS0_15memory_resourceE(ptr noundef nonnull align 64 dereferenceable(48) %9, i64 noundef 1048576, ptr noundef %10)
          to label %11 unwind label %15

11:                                               ; preds = %1
  store ptr %9, ptr %5, align 8, !tbaa !701
  %12 = load ptr, ptr %5, align 8, !tbaa !701
  call void @_ZN4pstd3pmr21polymorphic_allocatorISt4byteEC2EPNS0_15memory_resourceE(ptr noundef nonnull align 8 dereferenceable(8) %2, ptr noundef %12)
  call void @llvm.lifetime.end.p0(i64 8, ptr %5) #6
  call void @llvm.lifetime.end.p0(i64 8, ptr %4) #6
  %13 = getelementptr inbounds nuw %"class.pstd::pmr::polymorphic_allocator", ptr %2, i32 0, i32 0
  %14 = load ptr, ptr %13, align 8
  ret ptr %14

15:                                               ; preds = %1
  %16 = landingpad { ptr, i32 }
          cleanup
  %17 = extractvalue { ptr, i32 } %16, 0
  store ptr %17, ptr %6, align 8
  %18 = extractvalue { ptr, i32 } %16, 1
  store i32 %18, ptr %7, align 4
  call void @_ZdlPvSt11align_val_t(ptr noundef %9, i64 noundef 64) #29
  call void @llvm.lifetime.end.p0(i64 8, ptr %5) #6
  call void @llvm.lifetime.end.p0(i64 8, ptr %4) #6
  br label %19

19:                                               ; preds = %15
  %20 = load ptr, ptr %6, align 8
  %21 = load i32, ptr %7, align 4
  %22 = insertvalue { ptr, i32 } poison, ptr %20, 0
  %23 = insertvalue { ptr, i32 } %22, i32 %21, 1
  resume { ptr, i32 } %23
}

; Function Attrs: mustprogress nounwind uwtable
define linkonce_odr dso_local noundef ptr @_ZNKSt9_Any_data9_M_accessEv(ptr noundef nonnull align 8 dereferenceable(16) %0) #7 comdat align 2 {
  %2 = alloca ptr, align 8
  store ptr %0, ptr %2, align 8, !tbaa !1003
  %3 = load ptr, ptr %2, align 8
  %4 = getelementptr inbounds [16 x i8], ptr %3, i64 0, i64 0
  ret ptr %4
}

; Function Attrs: mustprogress uwtable
define internal ptr @"_ZSt13__invoke_implIN4pstd3pmr21polymorphic_allocatorISt4byteEERZN4pbrt10BasicSceneC1EvE3$_0JEET_St14__invoke_otherOT0_DpOT1_"(ptr noundef nonnull align 1 dereferenceable(1) %0) #1 {
  %2 = alloca %"class.pstd::pmr::polymorphic_allocator", align 8
  %3 = alloca ptr, align 8
  store ptr %0, ptr %3, align 8, !tbaa !13
  %4 = load ptr, ptr %3, align 8, !tbaa !13
  %5 = call ptr @"_ZZN4pbrt10BasicSceneC1EvENK3$_0clEv"(ptr noundef nonnull align 1 dereferenceable(1) %4)
  %6 = getelementptr inbounds nuw %"class.pstd::pmr::polymorphic_allocator", ptr %2, i32 0, i32 0
  store ptr %5, ptr %6, align 8
  %7 = getelementptr inbounds nuw %"class.pstd::pmr::polymorphic_allocator", ptr %2, i32 0, i32 0
  %8 = load ptr, ptr %7, align 8
  ret ptr %8
}

; Function Attrs: mustprogress nounwind uwtable
define internal noundef nonnull align 1 dereferenceable(1) ptr @"_ZNKSt9_Any_data9_M_accessIZN4pbrt10BasicSceneC1EvE3$_0EERKT_v"(ptr noundef nonnull align 8 dereferenceable(16) %0) #7 align 2 {
  %2 = alloca ptr, align 8
  store ptr %0, ptr %2, align 8, !tbaa !1003
  %3 = load ptr, ptr %2, align 8
  %4 = call noundef ptr @_ZNKSt9_Any_data9_M_accessEv(ptr noundef nonnull align 8 dereferenceable(16) %3) #6
  ret ptr %4
}

; Function Attrs: mustprogress uwtable
define internal ptr @"_ZSt10__invoke_rIN4pstd3pmr21polymorphic_allocatorISt4byteEERZN4pbrt10BasicSceneC1EvE3$_0JEENSt9enable_ifIX16is_invocable_r_vIT_T0_DpT1_EESA_E4typeEOSB_DpOSC_"(ptr noundef nonnull align 1 dereferenceable(1) %0) #1 {
  %2 = alloca %"class.pstd::pmr::polymorphic_allocator", align 8
  %3 = alloca ptr, align 8
  store ptr %0, ptr %3, align 8, !tbaa !13
  %4 = load ptr, ptr %3, align 8, !tbaa !13
  %5 = call ptr @"_ZSt13__invoke_implIN4pstd3pmr21polymorphic_allocatorISt4byteEERZN4pbrt10BasicSceneC1EvE3$_0JEET_St14__invoke_otherOT0_DpOT1_"(ptr noundef nonnull align 1 dereferenceable(1) %4)
  %6 = getelementptr inbounds nuw %"class.pstd::pmr::polymorphic_allocator", ptr %2, i32 0, i32 0
  store ptr %5, ptr %6, align 8
  %7 = getelementptr inbounds nuw %"class.pstd::pmr::polymorphic_allocator", ptr %2, i32 0, i32 0
  %8 = load ptr, ptr %7, align 8
  ret ptr %8
}

; Function Attrs: mustprogress nounwind uwtable
define internal noundef ptr @"_ZNSt14_Function_base13_Base_managerIZN4pbrt10BasicSceneC1EvE3$_0E14_M_get_pointerERKSt9_Any_data"(ptr noundef nonnull align 8 dereferenceable(16) %0) #7 align 2 {
  %2 = alloca ptr, align 8
  %3 = alloca ptr, align 8
  store ptr %0, ptr %2, align 8, !tbaa !1003
  call void @llvm.lifetime.start.p0(i64 8, ptr %3) #6
  %4 = load ptr, ptr %2, align 8, !tbaa !1003
  %5 = call noundef nonnull align 1 dereferenceable(1) ptr @"_ZNKSt9_Any_data9_M_accessIZN4pbrt10BasicSceneC1EvE3$_0EERKT_v"(ptr noundef nonnull align 8 dereferenceable(16) %4) #6
  store ptr %5, ptr %3, align 8, !tbaa !13
  %6 = load ptr, ptr %3, align 8, !tbaa !13
  call void @llvm.lifetime.end.p0(i64 8, ptr %3) #6
  ret ptr %6
}

; Function Attrs: mustprogress uwtable
define internal ptr @"_ZNSt17_Function_handlerIFN4pstd3pmr21polymorphic_allocatorISt4byteEEvEZN4pbrt10BasicSceneC1EvE3$_0E9_M_invokeERKSt9_Any_data"(ptr noundef nonnull align 8 dereferenceable(16) %0) #1 align 2 {
  %2 = alloca %"class.pstd::pmr::polymorphic_allocator", align 8
  %3 = alloca ptr, align 8
  store ptr %0, ptr %3, align 8, !tbaa !1003
  %4 = load ptr, ptr %3, align 8, !tbaa !1003
  %5 = call noundef ptr @"_ZNSt14_Function_base13_Base_managerIZN4pbrt10BasicSceneC1EvE3$_0E14_M_get_pointerERKSt9_Any_data"(ptr noundef nonnull align 8 dereferenceable(16) %4) #6
  %6 = call ptr @"_ZSt10__invoke_rIN4pstd3pmr21polymorphic_allocatorISt4byteEERZN4pbrt10BasicSceneC1EvE3$_0JEENSt9enable_ifIX16is_invocable_r_vIT_T0_DpT1_EESA_E4typeEOSB_DpOSC_"(ptr noundef nonnull align 1 dereferenceable(1) %5)
  %7 = getelementptr inbounds nuw %"class.pstd::pmr::polymorphic_allocator", ptr %2, i32 0, i32 0
  store ptr %6, ptr %7, align 8
  %8 = getelementptr inbounds nuw %"class.pstd::pmr::polymorphic_allocator", ptr %2, i32 0, i32 0
  %9 = load ptr, ptr %8, align 8
  ret ptr %9
}