; Function Attrs: mustprogress uwtable
define internal noalias noundef nonnull ptr @"_ZNSt17_Function_handlerIFN4pstd3pmr21polymorphic_allocatorISt4byteEEvEZN4pbrt10BasicSceneC1EvE3$_0E9_M_invokeERKSt9_Any_data"(ptr nonnull readnone align 8 captures(none) %0) #5 align 2 personality ptr @__gxx_personality_v0 {
  %2 = tail call noundef ptr @_ZN4pstd3pmr20get_default_resourceEv() #35
  %3 = tail call noalias noundef nonnull align 64 dereferenceable(64) ptr @_ZnwmSt11align_val_t(i64 noundef 64, i64 noundef 64) #38
  store ptr getelementptr inbounds nuw inrange(-16, 40) (i8, ptr @_ZTVN4pstd3pmr25monotonic_buffer_resourceE, i64 16), ptr %3, align 64, !tbaa !17
  %4 = getelementptr inbounds nuw i8, ptr %3, i64 8
  store ptr %2, ptr %4, align 8, !tbaa !25
  %5 = getelementptr inbounds nuw i8, ptr %3, i64 16
  store i64 1048576, ptr %5, align 16, !tbaa !128
  %6 = getelementptr inbounds nuw i8, ptr %3, i64 24
  tail call void @llvm.memset.p0.i64(ptr noundef nonnull align 8 dereferenceable(24) %6, i8 0, i64 24, i1 false)
  ret ptr %3
}